; Function Attrs: nounwind uwtable
define ptr @l_Array_forIn_x27Unsafe_loop___at_Lean_Elab_Tactic_InfoTrees_elabInfoTrees___spec__5___boxed(ptr noundef %0, ptr noundef %1, ptr noundef %2, ptr noundef %3, ptr noundef %4, ptr noundef %5, ptr noundef %6, ptr noundef %7, ptr noundef %8, ptr noundef %9, ptr noundef %10) local_unnamed_addr #0 {
  %12 = getelementptr i8, ptr %5, i64 8
  %.val38 = load i64, ptr %12, align 8, !tbaa !14
  %13 = ptrtoint ptr %5 to i64
  %14 = and i64 %13, 1
  %.not = icmp eq i64 %14, 0
  br i1 %.not, label %15, label %lean_dec.exit25

15:                                               ; preds = %11
  %16 = load i32, ptr %5, align 4, !tbaa !8
  %17 = icmp sgt i32 %16, 1
  br i1 %17, label %18, label %20, !prof !13

18:                                               ; preds = %15
  %19 = add nsw i32 %16, -1
  store i32 %19, ptr %5, align 4, !tbaa !8
  br label %lean_dec.exit25

20:                                               ; preds = %15
  %.not.i = icmp eq i32 %16, 0
  br i1 %.not.i, label %lean_dec.exit25, label %21

21:                                               ; preds = %20
  tail call void @lean_dec_ref_cold(ptr noundef nonnull %5) #4
  br label %lean_dec.exit25

lean_dec.exit25:                                  ; preds = %21, %20, %18, %11
  %22 = getelementptr i8, ptr %6, i64 8
  %.val = load i64, ptr %22, align 8, !tbaa !14
  %23 = ptrtoint ptr %6 to i64
  %24 = and i64 %23, 1
  %.not39 = icmp eq i64 %24, 0
  br i1 %.not39, label %25, label %lean_dec.exit24

25:                                               ; preds = %lean_dec.exit25
  %26 = load i32, ptr %6, align 4, !tbaa !8
  %27 = icmp sgt i32 %26, 1
  br i1 %27, label %28, label %30, !prof !13

28:                                               ; preds = %25
  %29 = add nsw i32 %26, -1
  store i32 %29, ptr %6, align 4, !tbaa !8
  br label %lean_dec.exit24

30:                                               ; preds = %25
  %.not.i26 = icmp eq i32 %26, 0
  br i1 %.not.i26, label %lean_dec.exit24, label %31

31:                                               ; preds = %30
  tail call void @lean_dec_ref_cold(ptr noundef nonnull %6) #4
  br label %lean_dec.exit24

lean_dec.exit24:                                  ; preds = %31, %30, %28, %lean_dec.exit25
  %32 = tail call ptr @l_Array_forIn_x27Unsafe_loop___at_Lean_Elab_Tactic_InfoTrees_elabInfoTrees___spec__5(ptr noundef %0, ptr poison, ptr poison, ptr noundef %3, ptr noundef %4, i64 noundef %.val38, i64 noundef %.val, ptr noundef %7, ptr noundef %8, ptr noundef %9, ptr noundef %10)
  %33 = ptrtoint ptr %9 to i64
  %34 = and i64 %33, 1
  %.not40 = icmp eq i64 %34, 0
  br i1 %.not40, label %35, label %lean_dec.exit23

35:                                               ; preds = %lean_dec.exit24
  %36 = load i32, ptr %9, align 4, !tbaa !8
  %37 = icmp sgt i32 %36, 1
  br i1 %37, label %38, label %40, !prof !13

38:                                               ; preds = %35
  %39 = add nsw i32 %36, -1
  store i32 %39, ptr %9, align 4, !tbaa !8
  br label %lean_dec.exit23

40:                                               ; preds = %35
  %.not.i28 = icmp eq i32 %36, 0
  br i1 %.not.i28, label %lean_dec.exit23, label %41

41:                                               ; preds = %40
  tail call void @lean_dec_ref_cold(ptr noundef nonnull %9) #4
  br label %lean_dec.exit23

lean_dec.exit23:                                  ; preds = %41, %40, %38, %lean_dec.exit24
  %42 = ptrtoint ptr %4 to i64
  %43 = and i64 %42, 1
  %.not41 = icmp eq i64 %43, 0
  br i1 %.not41, label %44, label %lean_dec.exit22

44:                                               ; preds = %lean_dec.exit23
  %45 = load i32, ptr %4, align 4, !tbaa !8
  %46 = icmp sgt i32 %45, 1
  br i1 %46, label %47, label %49, !prof !13

47:                                               ; preds = %44
  %48 = add nsw i32 %45, -1
  store i32 %48, ptr %4, align 4, !tbaa !8
  br label %lean_dec.exit22

49:                                               ; preds = %44
  %.not.i30 = icmp eq i32 %45, 0
  br i1 %.not.i30, label %lean_dec.exit22, label %50

50:                                               ; preds = %49
  tail call void @lean_dec_ref_cold(ptr noundef nonnull %4) #4
  br label %lean_dec.exit22

lean_dec.exit22:                                  ; preds = %50, %49, %47, %lean_dec.exit23
  %51 = ptrtoint ptr %2 to i64
  %52 = and i64 %51, 1
  %.not42 = icmp eq i64 %52, 0
  br i1 %.not42, label %53, label %lean_dec.exit21

53:                                               ; preds = %lean_dec.exit22
  %54 = load i32, ptr %2, align 4, !tbaa !8
  %55 = icmp sgt i32 %54, 1
  br i1 %55, label %56, label %58, !prof !13

56:                                               ; preds = %53
  %57 = add nsw i32 %54, -1
  store i32 %57, ptr %2, align 4, !tbaa !8
  br label %lean_dec.exit21

58:                                               ; preds = %53
  %.not.i32 = icmp eq i32 %54, 0
  br i1 %.not.i32, label %lean_dec.exit21, label %59

59:                                               ; preds = %58
  tail call void @lean_dec_ref_cold(ptr noundef nonnull %2) #4
  br label %lean_dec.exit21

lean_dec.exit21:                                  ; preds = %59, %58, %56, %lean_dec.exit22
  %60 = ptrtoint ptr %1 to i64
  %61 = and i64 %60, 1
  %.not43 = icmp eq i64 %61, 0
  br i1 %.not43, label %62, label %lean_dec.exit20

62:                                               ; preds = %lean_dec.exit21
  %63 = load i32, ptr %1, align 4, !tbaa !8
  %64 = icmp sgt i32 %63, 1
  br i1 %64, label %65, label %67, !prof !13

65:                                               ; preds = %62
  %66 = add nsw i32 %63, -1
  store i32 %66, ptr %1, align 4, !tbaa !8
  br label %lean_dec.exit20

67:                                               ; preds = %62
  %.not.i34 = icmp eq i32 %63, 0
  br i1 %.not.i34, label %lean_dec.exit20, label %68

68:                                               ; preds = %67
  tail call void @lean_dec_ref_cold(ptr noundef nonnull %1) #4
  br label %lean_dec.exit20

lean_dec.exit20:                                  ; preds = %68, %67, %65, %lean_dec.exit21
  %69 = ptrtoint ptr %0 to i64
  %70 = and i64 %69, 1
  %.not44 = icmp eq i64 %70, 0
  br i1 %.not44, label %71, label %lean_dec.exit

71:                                               ; preds = %lean_dec.exit20
  %72 = load i32, ptr %0, align 4, !tbaa !8
  %73 = icmp sgt i32 %72, 1
  br i1 %73, label %74, label %76, !prof !13

74:                                               ; preds = %71
  %75 = add nsw i32 %72, -1
  store i32 %75, ptr %0, align 4, !tbaa !8
  br label %lean_dec.exit

76:                                               ; preds = %71
  %.not.i36 = icmp eq i32 %72, 0
  br i1 %.not.i36, label %lean_dec.exit, label %77

77:                                               ; preds = %76
  tail call void @lean_dec_ref_cold(ptr noundef nonnull %0) #4
  br label %lean_dec.exit

lean_dec.exit:                                    ; preds = %77, %76, %74, %lean_dec.exit20
  ret ptr %32
}